target datalayout = "e-m:e-p270:32:32-p271:32:32-p272:64:64-i64:64-i128:128-f80:128-n8:16:32:64-S128"
target triple = "x86_64-pc-linux-gnu"

%union.anon = type { i32 }

@crc16tbl = internal global [2 x [256 x i16]] zeroinitializer, align 16
@__const.lha_crc16.u = private unnamed_addr constant %union.anon { i32 16909060 }, align 4

; Function Attrs: nounwind uwtable
define internal zeroext i16 @lha_crc16(i16 noundef zeroext %0, ptr noundef %1, i64 noundef %2) #0 {
  %4 = alloca i16, align 2
  %5 = alloca i16, align 2
  %6 = alloca ptr, align 8
  %7 = alloca i64, align 8
  %8 = alloca ptr, align 8
  %9 = alloca ptr, align 8
  %10 = alloca %union.anon, align 4
  %11 = alloca i32, align 4
  store i16 %0, ptr %5, align 2, !tbaa !107
  store ptr %1, ptr %6, align 8, !tbaa !31
  store i64 %2, ptr %7, align 8, !tbaa !30
  call void @llvm.lifetime.start.p0(i64 8, ptr %8) #11
  %12 = load ptr, ptr %6, align 8, !tbaa !31
  store ptr %12, ptr %8, align 8, !tbaa !28
  call void @llvm.lifetime.start.p0(i64 8, ptr %9) #11
  call void @llvm.lifetime.start.p0(i64 4, ptr %10) #11
  call void @llvm.memcpy.p0.p0.i64(ptr align 4 %10, ptr align 4 @__const.lha_crc16.u, i64 4, i1 false)
  %13 = load i64, ptr %7, align 8, !tbaa !30
  %14 = icmp eq i64 %13, 0
  br i1 %14, label %15, label %17

15:                                               ; preds = %3
  %16 = load i16, ptr %5, align 2, !tbaa !107
  store i16 %16, ptr %4, align 2
  store i32 1, ptr %11, align 4
  br label %255

17:                                               ; preds = %3
  %18 = load ptr, ptr %8, align 8, !tbaa !28
  %19 = ptrtoint ptr %18 to i64
  %20 = and i64 %19, 1
  %21 = icmp ne i64 %20, 0
  br i1 %21, label %22, label %42

22:                                               ; preds = %17
  %23 = load i16, ptr %5, align 2, !tbaa !107
  %24 = zext i16 %23 to i32
  %25 = ashr i32 %24, 8
  %26 = load i16, ptr %5, align 2, !tbaa !107
  %27 = zext i16 %26 to i32
  %28 = load ptr, ptr %8, align 8, !tbaa !28
  %29 = getelementptr inbounds nuw i8, ptr %28, i32 1
  store ptr %29, ptr %8, align 8, !tbaa !28
  %30 = load i8, ptr %28, align 1, !tbaa !29
  %31 = zext i8 %30 to i32
  %32 = xor i32 %27, %31
  %33 = and i32 %32, 255
  %34 = sext i32 %33 to i64
  %35 = getelementptr inbounds [256 x i16], ptr @crc16tbl, i64 0, i64 %34
  %36 = load i16, ptr %35, align 2, !tbaa !107
  %37 = zext i16 %36 to i32
  %38 = xor i32 %25, %37
  %39 = trunc i32 %38 to i16
  store i16 %39, ptr %5, align 2, !tbaa !107
  %40 = load i64, ptr %7, align 8, !tbaa !30
  %41 = add i64 %40, -1
  store i64 %41, ptr %7, align 8, !tbaa !30
  br label %42

42:                                               ; preds = %22, %17
  %43 = load ptr, ptr %8, align 8, !tbaa !28
  store ptr %43, ptr %9, align 8, !tbaa !129
  br label %44

44:                                               ; preds = %224, %42
  %45 = load i64, ptr %7, align 8, !tbaa !30
  %46 = icmp uge i64 %45, 8
  br i1 %46, label %47, label %227

47:                                               ; preds = %44
  br label %48

48:                                               ; preds = %47
  %49 = getelementptr inbounds [4 x i8], ptr %10, i64 0, i64 0
  %50 = load i8, ptr %49, align 4, !tbaa !29
  %51 = sext i8 %50 to i32
  %52 = icmp eq i32 %51, 1
  br i1 %52, label %53, label %64

53:                                               ; preds = %48
  %54 = load ptr, ptr %9, align 8, !tbaa !129
  %55 = load i16, ptr %54, align 2, !tbaa !107
  %56 = call i16 @llvm.bswap.i16(i16 %55)
  %57 = zext i16 %56 to i32
  %58 = load i16, ptr %5, align 2, !tbaa !107
  %59 = zext i16 %58 to i32
  %60 = xor i32 %59, %57
  %61 = trunc i32 %60 to i16
  store i16 %61, ptr %5, align 2, !tbaa !107
  %62 = load ptr, ptr %9, align 8, !tbaa !129
  %63 = getelementptr inbounds nuw i16, ptr %62, i32 1
  store ptr %63, ptr %9, align 8, !tbaa !129
  br label %73

64:                                               ; preds = %48
  %65 = load ptr, ptr %9, align 8, !tbaa !129
  %66 = getelementptr inbounds nuw i16, ptr %65, i32 1
  store ptr %66, ptr %9, align 8, !tbaa !129
  %67 = load i16, ptr %65, align 2, !tbaa !107
  %68 = zext i16 %67 to i32
  %69 = load i16, ptr %5, align 2, !tbaa !107
  %70 = zext i16 %69 to i32
  %71 = xor i32 %70, %68
  %72 = trunc i32 %71 to i16
  store i16 %72, ptr %5, align 2, !tbaa !107
  br label %73

73:                                               ; preds = %64, %53
  %74 = load i16, ptr %5, align 2, !tbaa !107
  %75 = zext i16 %74 to i32
  %76 = and i32 %75, 255
  %77 = sext i32 %76 to i64
  %78 = getelementptr inbounds [256 x i16], ptr getelementptr inbounds ([2 x [256 x i16]], ptr @crc16tbl, i64 0, i64 1), i64 0, i64 %77
  %79 = load i16, ptr %78, align 2, !tbaa !107
  %80 = zext i16 %79 to i32
  %81 = load i16, ptr %5, align 2, !tbaa !107
  %82 = zext i16 %81 to i32
  %83 = ashr i32 %82, 8
  %84 = sext i32 %83 to i64
  %85 = getelementptr inbounds [256 x i16], ptr @crc16tbl, i64 0, i64 %84
  %86 = load i16, ptr %85, align 2, !tbaa !107
  %87 = zext i16 %86 to i32
  %88 = xor i32 %80, %87
  %89 = trunc i32 %88 to i16
  store i16 %89, ptr %5, align 2, !tbaa !107
  br label %90

90:                                               ; preds = %73
  br label %91

91:                                               ; preds = %90
  br label %92

92:                                               ; preds = %91
  %93 = getelementptr inbounds [4 x i8], ptr %10, i64 0, i64 0
  %94 = load i8, ptr %93, align 4, !tbaa !29
  %95 = sext i8 %94 to i32
  %96 = icmp eq i32 %95, 1
  br i1 %96, label %97, label %108

97:                                               ; preds = %92
  %98 = load ptr, ptr %9, align 8, !tbaa !129
  %99 = load i16, ptr %98, align 2, !tbaa !107
  %100 = call i16 @llvm.bswap.i16(i16 %99)
  %101 = zext i16 %100 to i32
  %102 = load i16, ptr %5, align 2, !tbaa !107
  %103 = zext i16 %102 to i32
  %104 = xor i32 %103, %101
  %105 = trunc i32 %104 to i16
  store i16 %105, ptr %5, align 2, !tbaa !107
  %106 = load ptr, ptr %9, align 8, !tbaa !129
  %107 = getelementptr inbounds nuw i16, ptr %106, i32 1
  store ptr %107, ptr %9, align 8, !tbaa !129
  br label %117

108:                                              ; preds = %92
  %109 = load ptr, ptr %9, align 8, !tbaa !129
  %110 = getelementptr inbounds nuw i16, ptr %109, i32 1
  store ptr %110, ptr %9, align 8, !tbaa !129
  %111 = load i16, ptr %109, align 2, !tbaa !107
  %112 = zext i16 %111 to i32
  %113 = load i16, ptr %5, align 2, !tbaa !107
  %114 = zext i16 %113 to i32
  %115 = xor i32 %114, %112
  %116 = trunc i32 %115 to i16
  store i16 %116, ptr %5, align 2, !tbaa !107
  br label %117

117:                                              ; preds = %108, %97
  %118 = load i16, ptr %5, align 2, !tbaa !107
  %119 = zext i16 %118 to i32
  %120 = and i32 %119, 255
  %121 = sext i32 %120 to i64
  %122 = getelementptr inbounds [256 x i16], ptr getelementptr inbounds ([2 x [256 x i16]], ptr @crc16tbl, i64 0, i64 1), i64 0, i64 %121
  %123 = load i16, ptr %122, align 2, !tbaa !107
  %124 = zext i16 %123 to i32
  %125 = load i16, ptr %5, align 2, !tbaa !107
  %126 = zext i16 %125 to i32
  %127 = ashr i32 %126, 8
  %128 = sext i32 %127 to i64
  %129 = getelementptr inbounds [256 x i16], ptr @crc16tbl, i64 0, i64 %128
  %130 = load i16, ptr %129, align 2, !tbaa !107
  %131 = zext i16 %130 to i32
  %132 = xor i32 %124, %131
  %133 = trunc i32 %132 to i16
  store i16 %133, ptr %5, align 2, !tbaa !107
  br label %134

134:                                              ; preds = %117
  br label %135

135:                                              ; preds = %134
  br label %136

136:                                              ; preds = %135
  %137 = getelementptr inbounds [4 x i8], ptr %10, i64 0, i64 0
  %138 = load i8, ptr %137, align 4, !tbaa !29
  %139 = sext i8 %138 to i32
  %140 = icmp eq i32 %139, 1
  br i1 %140, label %141, label %152

141:                                              ; preds = %136
  %142 = load ptr, ptr %9, align 8, !tbaa !129
  %143 = load i16, ptr %142, align 2, !tbaa !107
  %144 = call i16 @llvm.bswap.i16(i16 %143)
  %145 = zext i16 %144 to i32
  %146 = load i16, ptr %5, align 2, !tbaa !107
  %147 = zext i16 %146 to i32
  %148 = xor i32 %147, %145
  %149 = trunc i32 %148 to i16
  store i16 %149, ptr %5, align 2, !tbaa !107
  %150 = load ptr, ptr %9, align 8, !tbaa !129
  %151 = getelementptr inbounds nuw i16, ptr %150, i32 1
  store ptr %151, ptr %9, align 8, !tbaa !129
  br label %161

152:                                              ; preds = %136
  %153 = load ptr, ptr %9, align 8, !tbaa !129
  %154 = getelementptr inbounds nuw i16, ptr %153, i32 1
  store ptr %154, ptr %9, align 8, !tbaa !129
  %155 = load i16, ptr %153, align 2, !tbaa !107
  %156 = zext i16 %155 to i32
  %157 = load i16, ptr %5, align 2, !tbaa !107
  %158 = zext i16 %157 to i32
  %159 = xor i32 %158, %156
  %160 = trunc i32 %159 to i16
  store i16 %160, ptr %5, align 2, !tbaa !107
  br label %161

161:                                              ; preds = %152, %141
  %162 = load i16, ptr %5, align 2, !tbaa !107
  %163 = zext i16 %162 to i32
  %164 = and i32 %163, 255
  %165 = sext i32 %164 to i64
  %166 = getelementptr inbounds [256 x i16], ptr getelementptr inbounds ([2 x [256 x i16]], ptr @crc16tbl, i64 0, i64 1), i64 0, i64 %165
  %167 = load i16, ptr %166, align 2, !tbaa !107
  %168 = zext i16 %167 to i32
  %169 = load i16, ptr %5, align 2, !tbaa !107
  %170 = zext i16 %169 to i32
  %171 = ashr i32 %170, 8
  %172 = sext i32 %171 to i64
  %173 = getelementptr inbounds [256 x i16], ptr @crc16tbl, i64 0, i64 %172
  %174 = load i16, ptr %173, align 2, !tbaa !107
  %175 = zext i16 %174 to i32
  %176 = xor i32 %168, %175
  %177 = trunc i32 %176 to i16
  store i16 %177, ptr %5, align 2, !tbaa !107
  br label %178

178:                                              ; preds = %161
  br label %179

179:                                              ; preds = %178
  br label %180

180:                                              ; preds = %179
  %181 = getelementptr inbounds [4 x i8], ptr %10, i64 0, i64 0
  %182 = load i8, ptr %181, align 4, !tbaa !29
  %183 = sext i8 %182 to i32
  %184 = icmp eq i32 %183, 1
  br i1 %184, label %185, label %196

185:                                              ; preds = %180
  %186 = load ptr, ptr %9, align 8, !tbaa !129
  %187 = load i16, ptr %186, align 2, !tbaa !107
  %188 = call i16 @llvm.bswap.i16(i16 %187)
  %189 = zext i16 %188 to i32
  %190 = load i16, ptr %5, align 2, !tbaa !107
  %191 = zext i16 %190 to i32
  %192 = xor i32 %191, %189
  %193 = trunc i32 %192 to i16
  store i16 %193, ptr %5, align 2, !tbaa !107
  %194 = load ptr, ptr %9, align 8, !tbaa !129
  %195 = getelementptr inbounds nuw i16, ptr %194, i32 1
  store ptr %195, ptr %9, align 8, !tbaa !129
  br label %205

196:                                              ; preds = %180
  %197 = load ptr, ptr %9, align 8, !tbaa !129
  %198 = getelementptr inbounds nuw i16, ptr %197, i32 1
  store ptr %198, ptr %9, align 8, !tbaa !129
  %199 = load i16, ptr %197, align 2, !tbaa !107
  %200 = zext i16 %199 to i32
  %201 = load i16, ptr %5, align 2, !tbaa !107
  %202 = zext i16 %201 to i32
  %203 = xor i32 %202, %200
  %204 = trunc i32 %203 to i16
  store i16 %204, ptr %5, align 2, !tbaa !107
  br label %205

205:                                              ; preds = %196, %185
  %206 = load i16, ptr %5, align 2, !tbaa !107
  %207 = zext i16 %206 to i32
  %208 = and i32 %207, 255
  %209 = sext i32 %208 to i64
  %210 = getelementptr inbounds [256 x i16], ptr getelementptr inbounds ([2 x [256 x i16]], ptr @crc16tbl, i64 0, i64 1), i64 0, i64 %209
  %211 = load i16, ptr %210, align 2, !tbaa !107
  %212 = zext i16 %211 to i32
  %213 = load i16, ptr %5, align 2, !tbaa !107
  %214 = zext i16 %213 to i32
  %215 = ashr i32 %214, 8
  %216 = sext i32 %215 to i64
  %217 = getelementptr inbounds [256 x i16], ptr @crc16tbl, i64 0, i64 %216
  %218 = load i16, ptr %217, align 2, !tbaa !107
  %219 = zext i16 %218 to i32
  %220 = xor i32 %212, %219
  %221 = trunc i32 %220 to i16
  store i16 %221, ptr %5, align 2, !tbaa !107
  br label %222

222:                                              ; preds = %205
  br label %223

223:                                              ; preds = %222
  br label %224

224:                                              ; preds = %223
  %225 = load i64, ptr %7, align 8, !tbaa !30
  %226 = sub i64 %225, 8
  store i64 %226, ptr %7, align 8, !tbaa !30
  br label %44, !llvm.loop !136

227:                                              ; preds = %44
  %228 = load ptr, ptr %9, align 8, !tbaa !129
  store ptr %228, ptr %8, align 8, !tbaa !28
  br label %229

229:                                              ; preds = %250, %227
  %230 = load i64, ptr %7, align 8, !tbaa !30
  %231 = icmp ne i64 %230, 0
  br i1 %231, label %232, label %253

232:                                              ; preds = %229
  %233 = load i16, ptr %5, align 2, !tbaa !107
  %234 = zext i16 %233 to i32
  %235 = ashr i32 %234, 8
  %236 = load i16, ptr %5, align 2, !tbaa !107
  %237 = zext i16 %236 to i32
  %238 = load ptr, ptr %8, align 8, !tbaa !28
  %239 = getelementptr inbounds nuw i8, ptr %238, i32 1
  store ptr %239, ptr %8, align 8, !tbaa !28
  %240 = load i8, ptr %238, align 1, !tbaa !29
  %241 = zext i8 %240 to i32
  %242 = xor i32 %237, %241
  %243 = and i32 %242, 255
  %244 = sext i32 %243 to i64
  %245 = getelementptr inbounds [256 x i16], ptr @crc16tbl, i64 0, i64 %244
  %246 = load i16, ptr %245, align 2, !tbaa !107
  %247 = zext i16 %246 to i32
  %248 = xor i32 %235, %247
  %249 = trunc i32 %248 to i16
  store i16 %249, ptr %5, align 2, !tbaa !107
  br label %250

250:                                              ; preds = %232
  %251 = load i64, ptr %7, align 8, !tbaa !30
  %252 = add i64 %251, -1
  store i64 %252, ptr %7, align 8, !tbaa !30
  br label %229, !llvm.loop !137

253:                                              ; preds = %229
  %254 = load i16, ptr %5, align 2, !tbaa !107
  store i16 %254, ptr %4, align 2
  store i32 1, ptr %11, align 4
  br label %255

255:                                              ; preds = %253, %15
  call void @llvm.lifetime.end.p0(i64 4, ptr %10) #11
  call void @llvm.lifetime.end.p0(i64 8, ptr %9) #11
  call void @llvm.lifetime.end.p0(i64 8, ptr %8) #11
  %256 = load i16, ptr %4, align 2
  ret i16 %256
}