; Function Attrs: nofree norecurse nosync nounwind memory(read, inaccessiblemem: none) uwtable
define internal fastcc zeroext i16 @lha_crc16(i16 noundef zeroext %0, ptr noundef %1, i64 noundef %2) unnamed_addr #10 {
  %4 = icmp eq i64 %2, 0
  br i1 %4, label %.loopexit, label %5

5:                                                ; preds = %3
  %6 = ptrtoint ptr %1 to i64
  %7 = and i64 %6, 1
  %.not = icmp eq i64 %7, 0
  br i1 %.not, label %17, label %8

8:                                                ; preds = %5
  %9 = lshr i16 %0, 8
  %10 = getelementptr inbounds nuw i8, ptr %1, i64 1
  %11 = load i8, ptr %1, align 1, !tbaa !4
  %.tr = trunc i16 %0 to i8
  %.narrow = xor i8 %11, %.tr
  %12 = zext i8 %.narrow to i64
  %13 = getelementptr inbounds nuw [256 x i16], ptr @crc16tbl, i64 0, i64 %12
  %14 = load i16, ptr %13, align 2, !tbaa !40
  %15 = xor i16 %14, %9
  %16 = add i64 %2, -1
  br label %17

17:                                               ; preds = %8, %5
  %.055 = phi i16 [ %15, %8 ], [ %0, %5 ]
  %.052 = phi i64 [ %16, %8 ], [ %2, %5 ]
  %.050 = phi ptr [ %10, %8 ], [ %1, %5 ]
  %18 = icmp ugt i64 %.052, 7
  br i1 %18, label %.lr.ph, label %.preheader

.preheader:                                       ; preds = %.lr.ph, %17
  %.156.lcssa = phi i16 [ %.055, %17 ], [ %70, %.lr.ph ]
  %.153.lcssa = phi i64 [ %.052, %17 ], [ %71, %.lr.ph ]
  %.049.lcssa = phi ptr [ %.050, %17 ], [ %60, %.lr.ph ]
  %.not6169 = icmp eq i64 %.153.lcssa, 0
  br i1 %.not6169, label %.loopexit, label %.lr.ph73

.lr.ph:                                           ; preds = %17, %.lr.ph
  %.04966 = phi ptr [ %60, %.lr.ph ], [ %.050, %17 ]
  %.15365 = phi i64 [ %71, %.lr.ph ], [ %.052, %17 ]
  %.15664 = phi i16 [ %70, %.lr.ph ], [ %.055, %17 ]
  %19 = getelementptr inbounds nuw i8, ptr %.04966, i64 2
  %20 = getelementptr inbounds nuw i8, ptr %.04966, i64 4
  %21 = getelementptr inbounds nuw i8, ptr %.04966, i64 6
  %22 = load i16, ptr %.04966, align 2, !tbaa !40
  %23 = xor i16 %22, %.15664
  %24 = zext i16 %23 to i32
  %25 = and i32 %24, 255
  %26 = zext nneg i32 %25 to i64
  %27 = getelementptr inbounds nuw [256 x i16], ptr getelementptr inbounds nuw (i8, ptr @crc16tbl, i64 512), i64 0, i64 %26
  %28 = load i16, ptr %27, align 2, !tbaa !40
  %29 = lshr i32 %24, 8
  %30 = zext nneg i32 %29 to i64
  %31 = getelementptr inbounds nuw [256 x i16], ptr @crc16tbl, i64 0, i64 %30
  %32 = load i16, ptr %31, align 2, !tbaa !40
  %33 = xor i16 %32, %28
  %34 = load i16, ptr %19, align 2, !tbaa !40
  %35 = xor i16 %33, %34
  %36 = zext i16 %35 to i32
  %37 = and i32 %36, 255
  %38 = zext nneg i32 %37 to i64
  %39 = getelementptr inbounds nuw [256 x i16], ptr getelementptr inbounds nuw (i8, ptr @crc16tbl, i64 512), i64 0, i64 %38
  %40 = load i16, ptr %39, align 2, !tbaa !40
  %41 = lshr i32 %36, 8
  %42 = zext nneg i32 %41 to i64
  %43 = getelementptr inbounds nuw [256 x i16], ptr @crc16tbl, i64 0, i64 %42
  %44 = load i16, ptr %43, align 2, !tbaa !40
  %45 = xor i16 %44, %40
  %46 = load i16, ptr %20, align 2, !tbaa !40
  %47 = xor i16 %45, %46
  %48 = zext i16 %47 to i32
  %49 = and i32 %48, 255
  %50 = zext nneg i32 %49 to i64
  %51 = getelementptr inbounds nuw [256 x i16], ptr getelementptr inbounds nuw (i8, ptr @crc16tbl, i64 512), i64 0, i64 %50
  %52 = load i16, ptr %51, align 2, !tbaa !40
  %53 = lshr i32 %48, 8
  %54 = zext nneg i32 %53 to i64
  %55 = getelementptr inbounds nuw [256 x i16], ptr @crc16tbl, i64 0, i64 %54
  %56 = load i16, ptr %55, align 2, !tbaa !40
  %57 = xor i16 %56, %52
  %58 = load i16, ptr %21, align 2, !tbaa !40
  %59 = xor i16 %57, %58
  %60 = getelementptr inbounds nuw i8, ptr %.04966, i64 8
  %61 = zext i16 %59 to i32
  %62 = and i32 %61, 255
  %63 = zext nneg i32 %62 to i64
  %64 = getelementptr inbounds nuw [256 x i16], ptr getelementptr inbounds nuw (i8, ptr @crc16tbl, i64 512), i64 0, i64 %63
  %65 = load i16, ptr %64, align 2, !tbaa !40
  %66 = lshr i32 %61, 8
  %67 = zext nneg i32 %66 to i64
  %68 = getelementptr inbounds nuw [256 x i16], ptr @crc16tbl, i64 0, i64 %67
  %69 = load i16, ptr %68, align 2, !tbaa !40
  %70 = xor i16 %69, %65
  %71 = add i64 %.15365, -8
  %72 = icmp ugt i64 %71, 7
  br i1 %72, label %.lr.ph, label %.preheader, !llvm.loop !78

.lr.ph73:                                         ; preds = %.preheader, %.lr.ph73
  %.15172 = phi ptr [ %74, %.lr.ph73 ], [ %.049.lcssa, %.preheader ]
  %.25471 = phi i64 [ %80, %.lr.ph73 ], [ %.153.lcssa, %.preheader ]
  %.670 = phi i16 [ %79, %.lr.ph73 ], [ %.156.lcssa, %.preheader ]
  %73 = lshr i16 %.670, 8
  %74 = getelementptr inbounds nuw i8, ptr %.15172, i64 1
  %75 = load i8, ptr %.15172, align 1, !tbaa !4
  %.tr62 = trunc i16 %.670 to i8
  %.narrow63 = xor i8 %75, %.tr62
  %76 = zext i8 %.narrow63 to i64
  %77 = getelementptr inbounds nuw [256 x i16], ptr @crc16tbl, i64 0, i64 %76
  %78 = load i16, ptr %77, align 2, !tbaa !40
  %79 = xor i16 %78, %73
  %80 = add nsw i64 %.25471, -1
  %.not61 = icmp eq i64 %80, 0
  br i1 %.not61, label %.loopexit, label %.lr.ph73, !llvm.loop !79

.loopexit:                                        ; preds = %.lr.ph73, %.preheader, %3
  %.0 = phi i16 [ %0, %3 ], [ %.156.lcssa, %.preheader ], [ %79, %.lr.ph73 ]
  ret i16 %.0
}